(dp0
S'y'
p1
(lp2
F-4.163744408408795
aF-4.206469600975446
aF-4.2646411187947715
aF-4.322155595564852
aF-4.364531744115458
aF-4.4196402970804884
aF-4.465381276979523
aF-4.5098201097707005
aF-4.557264530674461
aF-4.60120634443636
aF-4.648006166723569
aF-4.694325696345343
aF-4.725684305779209
aF-4.765598817649511
aF-4.797171480030407
aF-4.830870304383515
aF-4.872940161587432
aF-4.908184526586292
aF-4.939668040490715
aF-4.986201375520894
aF-5.0258568257302105
aF-5.062141730645301
aF-5.103768082104056
aF-5.1374678293600295
aF-5.198717543451107
aF-5.202408150792979
aF-5.2241438208040645
aF-5.226439936963622
aF-5.230594613157432
aF-5.233881998475587
aF-5.279048337158041
aF-5.2957294648037765
aF-5.308583019648052
aF-5.316169832702466
aF-5.316366387551623
aF-5.311736420194705
aF-5.309476026979023
aF-5.312396826599869
aF-5.324631796771116
aF-5.335498921980206
aF-5.34604641054777
aF-5.354672539263543
aF-5.357898196075984
aF-5.3570290564342935
aF-5.354190364468494
aF-5.35157411393167
aF-5.352517281664841
aF-5.353339089217023
aF-5.352670007920847
aF-5.364189250117656
aF-5.370142270321205
aF-5.378378296190223
aF-5.388317212642821
aF-5.386891163986098
aF-5.3883516043451065
aF-5.385819695784116
aF-5.383699345509557
aF-5.382338739014832
aF-5.380812214415504
aF-5.384147194569951
aF-5.3851258282028684
aF-5.38076625934216
aF-5.375275726046788
aF-5.372298159867324
aF-5.371578851503408
aF-5.371589880284411
aF-5.370193833420103
aF-5.3573034248477756
aF-5.350531766854269
aF-5.341890029724151
aF-5.335211726043662
aF-5.323649139252353
aF-5.31987598971579
aF-5.308879110158835
aF-5.291968021092867
aF-5.269590549389822
aF-5.252945690096779
aF-5.225228292045549
aF-5.204953393154981
aF-5.187939305506163
aF-5.172182194324621
aF-5.16746031401379
aF-5.162994836962073
aF-5.149945757764996
aF-5.137829939942369
aF-5.136755054646132
aF-5.12407057840201
aF-5.108249756905289
aF-5.092915816258506
aF-5.0779014200436245
aF-5.063525537283605
aF-5.050469131532977
aF-5.035998106429063
aF-5.014008765266392
aF-4.995622587329015
aF-4.97471418462483
aF-4.961693498006736
aF-4.945563511885595
aF-4.927763182057903
aF-4.905514552505903
aF-4.889319284313357
aF-4.864450203553542
aF-4.819047769127588
aF-4.758371733933763
aF-4.731429224718262
aF-4.701051930856435
aF-4.6851468401271665
aF-4.665546576024756
aF-4.651157838414782
aF-4.614720662791885
aF-4.588254993162472
aF-4.556534401605685
aF-4.530355756416431
aF-4.505986559145732
aF-4.492576914153515
aF-4.461913096850896
aF-4.443535678533049
aF-4.422744285089142
aF-4.395793859672064
aF-4.3628061545709516
aF-4.333804098063879
aF-4.302421350343465
aF-4.275571060894285
aF-4.246382467166795
aF-4.216372273288403
aF-4.179855619529799
aF-4.167008334663052
aF-4.140835969896345
aF-4.1128866271213695
aF-4.087541426893116
aF-4.064419230831882
aF-4.026074662120564
aF-3.997856986512554
aF-3.9649783985500124
aF-3.88311964765894
aF-3.8933175734411574
aF-3.875214774937464
aF-3.8317677351845867
aF-3.8160213189041507
aF-3.7980609047076546
aF-3.763707313394941
aF-3.736858506985793
aF-3.6428293882286087
aF-3.564922774233328
aF-3.5345378827656795
aF-3.5293458005992124
aF-3.50520523815146
aF-3.4931530643418145
aF-3.466501076669926
aF-3.4365379879571973
aF-3.417511569797809
aF-3.3946142963374966
aF-3.377300062394664
aF-3.361074872595814
aF-3.3437396052835378
aF-3.3265217464837993
aF-3.30462786294665
aF-3.287485289597935
aF-3.268383480651956
aF-3.250955668801864
aF-3.226993398739622
aF-3.2135698288335544
aF-3.2001877819200617
aF-3.179411479234437
aF-3.1595221449611532
aF-3.1328945408829187
aF-3.083790780058885
aF-2.952223266401487
aF-2.8713354816168235
aF-2.8307320102164226
aF-2.8060379887895177
aF-2.7696672527044024
aF-2.735690653586323
aF-2.7055835184900925
aF-2.6633259414607036
aF-2.6307011712852773
aF-2.603409508835274
aF-2.581362103333669
aF-2.5565053465680743
aF-2.534097676934511
aF-2.49552592644196
aF-2.4429002600369474
aF-2.4095162072625484
aF-2.3804217497228484
aF-2.3425885117862464
aF-2.3093319464181117
aF-2.2779857696947903
aF-2.2783210433550254
aF-2.2115771410523317
aF-2.1914417107588946
aF-2.174130764068211
aF-2.117902001017348
aF-2.083846743414114
aF-2.06258909763976
aF-1.995789109679823
aF-1.9528617574681664
aF-1.9403898944592288
aF-1.9271150044063299
aF-1.9115294959190277
aF-1.8824953428786746
aF-1.8529489698643211
aF-1.8229116924036555
aF-1.7946416797111793
aF-1.758110573720121
aF-1.7397683498987035
aF-1.6932631522279726
aF-1.6409687914682642
aF-1.6197989916264228
aF-1.5961256902476557
aF-1.56965377883522
aF-1.5484775341126724
aF-1.552245081972713
aF-1.5342236425678375
aF-1.515967419139099
aF-1.496407116144014
aF-1.4778057339346933
aF-1.4602050662618544
aF-1.4456383366765475
aF-1.4257592850367609
aF-1.4000452087589608
aF-1.374121773687525
aF-1.3629614582379221
aF-1.3426884455393902
aF-1.3200521688337108
aF-1.2985967085250685
aF-1.2780273916720353
aF-1.253292421252689
aF-1.2319226075459182
aF-1.2082052803521646
aF-1.1878107700955232
aF-1.1670768905842908
aF-1.1528673215902556
aF-1.1335064879969619
aF-1.1151882010997043
aF-1.0878514846623508
aF-1.0683023989177929
aF-1.05167074746418
aF-1.03447063453333
aF-1.0154046807072465
aF-0.9936829550292032
aF-0.9575392314987253
aF-0.9148817356808607
aF-0.8987209374139717
aF-0.8600275914284942
aF-0.8593889479227681
aF-0.8426967285545135
aF-0.821775455206407
aF-0.798754464952559
aF-0.7828666034366364
aF-0.7828371815803268
aF-0.757625388247704
aF-0.7353279760308511
aF-0.722991062184644
aF-0.6982969815622848
aF-0.6747737355848898
aF-0.6564428558214209
aF-0.6555613679507173
aF-0.6344743798177905
aF-0.6122210976307843
aF-0.5848948116188388
aF-0.561099722583255
aF-0.5583273271489403
aF-0.5377649325430797
aF-0.5140058148787879
aF-0.47990466778757546
aF-0.46461910155857195
aF-0.4356560724341964
aF-0.4125092690190982
aF-0.378175252541276
aF-0.3309560023985851
aF-0.3117380505849989
aF-0.2927681188922158
aF-0.26916593758750895
aF-0.2538639557311927
aF-0.22551949591149772
aF-0.203930537339792
aF-0.1877794093694087
aF-0.16623479236120028
aF-0.12598576810184361
aF-0.12310985933494767
aF-0.08032639949085374
aF-0.08346189694403308
aF-0.05616681995675236
aF-0.04694996739849684
aF-0.0363166407920067
aF-0.024507780217314146
aF-0.006839010835810264
aF0.005386334302908904
aF0.019538647049988672
aF0.01817194683789908
aF0.032806006827922916
aF0.056957854948229344
aF0.0721583784794691
aF0.08188841143326929
aF0.08396575774202783
aF0.0897521077444409
aF0.09049360482749834
aF0.10026203708037153
aF0.10865069639271042
aF0.11697488364441927
aF0.12140458439888849
aF0.12347408860835897
aF0.12779256494254815
aF0.13082797768736093
aF0.1338107780788049
aF0.13385413124951212
aF0.1377897471656743
aF0.13329136595694238
aF0.12886315076222338
aF0.12963826615722096
aF0.12872552311393667
aF0.1278535919797077
aF0.1235196121243847
aF0.1253661114835624
aF0.12604268676071906
aF0.10332017840549411
aF0.08617304868918961
aF0.0722393770831021
aF0.054477806140700184
aF0.04559577168829237
aF0.03615103343772634
aF0.030614973306710175
aF0.024201512838759875
aF0.01633354099683457
aF0.008369515774259614
aF0.00022823938270414776
aF-0.014634976370429752
aF-0.02670280694840735
aF-0.04890950160754549
aF-0.07359353884507008
aF-0.10113096479260339
aF-0.1288374961313457
aF-0.15935583789910673
aF-0.18357201006922513
aF-0.20827609597245048
aF-0.2511768058441936
aF-0.2802163703443936
aF-0.3049557299831032
aF-0.3214547527600236
aF-0.34217349323352236
aF-0.41389535431352453
aF-0.4740489627428895
aF-0.5064930053316119
aF-0.5279783783542931
aF-0.5609539437481357
aF-0.5904346148061965
aF-0.6150218721290103
aF-0.6329731099104999
aF-0.6643339666636303
aF-0.6989950080967868
aF-0.7492969259004254
aF-0.7669531772007262
aF-0.8086116355820645
aF-0.8398751743562021
aF-0.8665767332555759
aF-0.8897531671320418
aF-0.9118488732566853
aF-0.9408546891240396
aF-0.9690666552393308
aF-0.9884545760586191
aF-1.018100857213711
aF-1.067254337373738
aF-1.1017129214724946
aF-1.129740400424834
aF-1.138095815468461
aF-1.1574604595240716
aF-1.1755246296444366
aF-1.2052024303713091
aF-1.2265907919542351
aF-1.251605336000306
aF-1.2804979784049335
aF-1.34605411262154
aF-1.3690154261749068
aF-1.4254578394721777
aF-1.5190201498583895
aF-1.5880602539912918
aF-1.6211901346120319
aF-1.651329065766007
aF-1.6836275578066913
aF-1.737034411220326
aF-1.7696651590467039
aF-1.8050284236082554
aF-1.8515928501494128
aF-1.9141352339985613
aF-1.9448021439093393
aF-1.975932034697745
aF-2.001875180388839
aF-2.0372959957506898
aF-2.0674835925893453
aF-2.093791982761681
aF-2.123210670887054
aF-2.198517082162683
aF-2.249373210204102
aF-2.2923454368151255
aF-2.326573004532565
aF-2.371354490724264
aF-2.4098343995981923
aF-2.4811710690427327
aF-2.515340743894408
aF-2.553986290448948
aF-2.590691106300768
aF-2.6367809883700204
aF-2.726018912964347
aF-2.7660243633389614
aF-2.8088656152765075
aF-2.8109329146368984
aF-2.9300965489272595
aF-2.9373004489237715
aF-2.9754685066595328
aF-3.021569425540261
aF-3.1320872228081664
aF-3.1675940417379214
aF-3.2322647528841766
aF-3.2557230209627375
aF-3.3464344374582065
aF-3.381869226452823
aF-3.4250579764913276
aF-3.468617074606228
aF-3.5455638766161552
aF-3.645322744150582
aF-3.807578004239608
aF-3.8070344237489575
aF-3.8880499790032057
aF-3.961040692530639
aF-4.004692816087616
aF-4.040650402985921
aF-4.076537060534619
aF-4.22233976038698
aF-4.262973998357277
aF-4.255961574266458
aF-4.274440970477695
aF-4.296282720883068
aF-4.355449914364976
aF-4.406284562030348
aF-4.42814509825705
aF-4.451513856045351
aF-4.4679884899077145
aF-4.514179560695623
aF-4.526635213005537
aF-4.548937847748429
aF-4.569711294820118
aF-4.587200183226508
aF-4.603065565934736
aF-4.6197813980702085
aF-4.651018541367035
aF-4.649028368232417
aF-4.671041928505179
aF-4.688833234436083
aF-4.687915014265055
aF-4.687486926555322
aF-4.689053515607268
aF-4.700634651647082
aF-4.7033398700319475
aF-4.70184736957338
aF-4.700928071549233
aF-4.692919490107201
aF-4.678652153007664
aF-4.665263061285612
aF-4.655018447601424
aF-4.644236759581624
aF-4.632773460500925
aF-4.6157655925251175
aF-4.596671445083464
aF-4.598869988315763
aF-4.603906685052316
aF-4.603118220887981
aF-4.592442660901334
aF-4.570233987378636
aF-4.551239069784722
aF-4.536631839900725
aF-4.522572892099302
aF-4.501250038945432
aF-4.486007703799529
aF-4.455228347848217
aF-4.440752609644227
aF-4.408620493923577
aF-4.397819334771189
aF-4.381043590998322
aF-4.348073104365676
aF-4.316939061422475
aF-4.318222892623904
aF-4.302580754995398
aF-4.281376713915741
aF-4.26350072347809
aF-4.23977379991708
aF-4.2196131429668675
aF-4.199438109398083
aF-4.185939499308072
aF-4.150771999556649
aF-4.1482016022728585
aF-4.130876839357501
aF-4.1121918741583965
aF-4.098345738282417
aF-4.051998981936709
aF-4.05189175079594
aF-4.032488476010645
aF-3.998595398365763
aF-3.919128356276732
aF-3.893181123061645
aF-3.8612689775952647
aF-3.824903830633576
aF-3.802448286303008
aF-3.754768808360048
aF-3.7268927927393274
aF-3.7066199382817895
aF-3.6844270571647906
aF-3.643326828685005
aF-3.5933577576406086
aF-3.535229202312449
aF-3.4893078209204704
aF-3.4699520563151074
aF-3.4368379148009427
aF-3.3888601149428115
aF-3.3361433419376945
aF-3.298255199739158
aF-3.2829303121461813
aF-3.2541706589390533
aF-3.1991350941705643
aF-3.1600740531078406
aF-3.130783117396577
aF-3.096238481002362
aF-3.070386956133553
aF-3.008555670843591
aF-2.9685920176434597
aF-2.9347030730711183
aF-2.8668447451315044
aF-2.7555431465249525
aF-2.7115392348289378
aF-2.6766937910384248
aF-2.6639353532261154
aF-2.6079066875904795
aF-2.5809836573961937
aF-2.5490801959944323
aF-2.542404935812601
aF-2.5113156500094935
aF-2.4772606682733795
aF-2.443836553329594
aF-2.387612928632065
aF-2.306577630785301
aF-2.241159536006365
aF-2.141277001889977
aF-2.119980524666373
aF-2.094152186760972
aF-2.043975494578552
aF-2.0139750825251075
aF-1.9491843789271723
aF-1.9199083779493384
aF-1.8906159037201504
aF-1.8860416540777094
aF-1.7775294399841568
aF-1.7532212584972957
aF-1.7081290958122761
aF-1.6685435890641709
aF-1.6284511319264103
aF-1.6036237592187785
aF-1.523287706050839
aF-1.4993154318781812
aF-1.4988871930175347
aF-1.4477189951044582
aF-1.42531251133624
aF-1.4006182880580178
aF-1.3801166163669663
aF-1.324313060572105
aF-1.2666450249162269
aF-1.2493477079908621
aF-1.220812907207174
aF-1.1510305361564404
aF-1.1304993808656494
aF-1.1032916297659223
aF-1.034648837431102
aF-0.9668928291123345
aF-0.827001635668511
aF-0.8110133369689997
aF-0.8124027754609074
aF-0.7832631327616708
aF-0.7557527768655337
aF-0.7245377517742557
aF-0.65581089694313
aF-0.5900285882749717
aF-0.5683384636778832
aF-0.535464344381639
aF-0.501153058097772
aF-0.40656943098072784
aF-0.3785398674602188
aF-0.3476315198084906
aF-0.2573149102463131
aF-0.2603865749508668
aF-0.18248950452774806
aF-0.15996035301114606
aF-0.11173396845298851
aF-0.08252941067352587
aF-0.006056354799231584
aF-0.01776055288196657
aF0.010266190339647773
aF0.03965268822892822
aF0.06685482367380169
aF0.1334699552073147
aF0.22065892916740976
aF0.270395070256282
aF0.29364461097296796
aF0.3341564261808584
aF0.3593902472880494
aF0.41007617407430486
aF0.4868446501426933
aF0.5509434296459255
aF0.5769940001382307
aF0.5787888197870662
aF0.596392911219892
aF0.5959047549027197
aF0.6090826360440662
aF0.637217544374949
aF0.6691295142620003
aF0.682392067087936
aF0.6802506533288475
aF0.6920962235522261
aF0.7162015481775312
aF0.7274637737862896
aF0.7355249594359742
aF0.7494928931446216
aF0.7658980265495036
aF0.7824977460611043
aF0.794626977452053
aF0.7934256664763679
asS'x'
p3
(lp4
F-0.0826015959699589
aF-0.08884305113954843
aF-0.09427588481274671
aF-0.0986350546406996
aF-0.10294204592187496
aF-0.11313652682069691
aF-0.1313818372480089
aF-0.1516636465948194
aF-0.17535072378004324
aF-0.19804971713708586
aF-0.222143948257203
aF-0.2506740160642785
aF-0.2745329261852102
aF-0.3094245668658538
aF-0.34346572881574505
aF-0.37924432938395697
aF-0.41998910050069455
aF-0.4501378078730517
aF-0.4687126076814649
aF-0.49312979963946646
aF-0.5176285277401772
aF-0.5392496949318336
aF-0.5712091200769664
aF-0.607542901815455
aF-0.6861745783830646
aF-0.7309444845148365
aF-0.7737685476902516
aF-0.8705517493532993
aF-0.9236732546242384
aF-0.9239985482507299
aF-1.0757593203956848
aF-1.1132267904139028
aF-1.1518028193116825
aF-1.1965950479307101
aF-1.2495706998976035
aF-1.3036222840141791
aF-1.410602414856633
aF-1.466175707343227
aF-1.5235904829804376
aF-1.5833537995269928
aF-1.6217205390319176
aF-1.667768513399763
aF-1.710077467132971
aF-1.7641779408135811
aF-1.806217173197978
aF-1.8505544528546936
aF-1.8842279978944225
aF-1.9184248163972337
aF-1.9654378085448196
aF-2.050686881392201
aF-2.097125277798617
aF-2.136563716620446
aF-2.2255787270748955
aF-2.2566069195743697
aF-2.289279005790227
aF-2.3389690326754824
aF-2.36711074878801
aF-2.4008571988623166
aF-2.513426033379291
aF-2.5430143140067187
aF-2.60810969401542
aF-2.681587745585775
aF-2.71891083227976
aF-2.753425417678601
aF-2.7800894768436852
aF-2.8052973283478657
aF-2.8669480145636714
aF-2.9658092559513407
aF-3.0064257153752996
aF-3.0443776744671487
aF-3.0846534136008916
aF-3.164453017625229
aF-3.1921895232433988
aF-3.2189903545297636
aF-3.249308409986988
aF-3.2694587825965717
aF-3.293977874780605
aF-3.3140796284696337
aF-3.332644233449198
aF-3.3547943580541455
aF-3.381805967500161
aF-3.3996750330433287
aF-3.405959137077292
aF-3.4281563012484986
aF-3.450053592953629
aF-3.4496456677822716
aF-3.4700579693425033
aF-3.489989830000641
aF-3.5108844928279153
aF-3.5310853400175435
aF-3.552907907921452
aF-3.5668829314041934
aF-3.582636722104527
aF-3.5967172097835975
aF-3.6081328414495344
aF-3.6225894630018316
aF-3.6320074118683694
aF-3.6462791233477163
aF-3.665618073116726
aF-3.697199048735895
aF-3.7070939947686834
aF-3.720004968143041
aF-3.7364239387602876
aF-3.7456091676465055
aF-3.7516295958594235
aF-3.7550475747087235
aF-3.762774963166867
aF-3.768131258227188
aF-3.7773865403057623
aF-3.7959977975071104
aF-3.8005297269302747
aF-3.799128799637439
aF-3.7953132695979903
aF-3.794094019693086
aF-3.7911501793847298
aF-3.787958811661914
aF-3.790280096244952
aF-3.793642002547644
aF-3.797769382321132
aF-3.804708288629156
aF-3.8083190977053123
aF-3.805597853201653
aF-3.7978253398040467
aF-3.787118858129562
aF-3.77132932494978
aF-3.750951631505334
aF-3.735594148749528
aF-3.708072863849406
aF-3.684667255558913
aF-3.6607081479512074
aF-3.6464906954065275
aF-3.6233375712360893
aF-3.6128015285478394
aF-3.5963691372329034
aF-3.5545507994757917
aF-3.559498079792957
aF-3.5500438720398493
aF-3.519761716564886
aF-3.5053533482425325
aF-3.4901982660028237
aF-3.46212966738099
aF-3.4466428193150347
aF-3.3971252433442705
aF-3.3764414790641117
aF-3.39051656492146
aF-3.4190040781819437
aF-3.4342386892119623
aF-3.440170730101924
aF-3.4355768657261656
aF-3.4261117829221446
aF-3.413017952954138
aF-3.403756410741497
aF-3.398538248777525
aF-3.4018632910058977
aF-3.401128075256233
aF-3.400045916041622
aF-3.401856258703216
aF-3.397224826104048
aF-3.3928413221112956
aF-3.388559533109338
aF-3.384730894121718
aF-3.3850499748716674
aF-3.3844038290124216
aF-3.378823035822946
aF-3.3741706446319126
aF-3.373613785847701
aF-3.368222431582144
aF-3.352114892613137
aF-3.325248752968424
aF-3.3189157622587517
aF-3.31694925551682
aF-3.317201336449951
aF-3.316922069414719
aF-3.322975267105098
aF-3.3305465104734604
aF-3.33288204246048
aF-3.336358740581191
aF-3.336201074111847
aF-3.337932495294917
aF-3.336031039711265
aF-3.338216356506627
aF-3.3399818733267335
aF-3.3398674893600475
aF-3.339342572226617
aF-3.3444142773425125
aF-3.344888209325304
aF-3.3499631341296348
aF-3.3500628830574697
aF-3.356494913515355
aF-3.360442739896367
aF-3.3615967438909
aF-3.3661185163886733
aF-3.368731566094762
aF-3.372437158215986
aF-3.3775987108743726
aF-3.3849489978668736
aF-3.388676500593025
aF-3.396251350378827
aF-3.4028329546993383
aF-3.410914948757168
aF-3.420428805649864
aF-3.4311675902338163
aF-3.4387738468342386
aF-3.4562086136790406
aF-3.461884463989738
aF-3.4768983251941563
aF-3.4987724384800085
aF-3.505848376928546
aF-3.5140923273328264
aF-3.525898888504933
aF-3.5403611414122245
aF-3.5399825736218267
aF-3.5501888403129684
aF-3.5591537048062016
aF-3.569595302516555
aF-3.582732988057659
aF-3.593501082389126
aF-3.6056583810949103
aF-3.6186086352544766
aF-3.628761487983962
aF-3.6414761722002043
aF-3.6483450068002545
aF-3.65935542375157
aF-3.6686266551574302
aF-3.6816280550503926
aF-3.689997567889246
aF-3.7010944498760767
aF-3.7030826525950507
aF-3.710338879093082
aF-3.7144644677511667
aF-3.723232452466012
aF-3.7314350698201437
aF-3.739895970917679
aF-3.750895600528899
aF-3.76247635801918
aF-3.767642890110139
aF-3.770548918898488
aF-3.7728633825471567
aF-3.770401223285821
aF-3.767017708160912
aF-3.765787263976642
aF-3.7710491180418577
aF-3.7737914957755927
aF-3.779688401773503
aF-3.7804598633026214
aF-3.782252684288044
aF-3.785005142771164
aF-3.786086616355304
aF-3.785800315814434
aF-3.783312814922058
aF-3.7825446147489443
aF-3.781778320021385
aF-3.7830746972688836
aF-3.7843497798726373
aF-3.787988258680621
aF-3.789554145844218
aF-3.7892679426573204
aF-3.7908096774414686
aF-3.787776675400042
aF-3.787248639660545
aF-3.7858142644727084
aF-3.78506875753259
aF-3.7819251614288363
aF-3.779141887733582
aF-3.775755210168844
aF-3.7758549790956533
aF-3.777043551787976
aF-3.775156851849947
aF-3.7646862454151115
aF-3.737076948556319
aF-3.7202416110694467
aF-3.6990517125859212
aF-3.681156408746835
aF-3.6734900005223476
aF-3.6618763728892456
aF-3.6518673299471343
aF-3.643984356345579
aF-3.631871716424633
aF-3.6093400628166936
aF-3.6050831015162768
aF-3.5656764152586446
aF-3.5648521218208638
aF-3.526835507619572
aF-3.5059364349157605
aF-3.4779791986803836
aF-3.4538575289861706
aF-3.4260493053552907
aF-3.4102452494138458
aF-3.3934244746518445
aF-3.3946914187918247
aF-3.3744099948884076
aF-3.3368601503166024
aF-3.311481032762975
aF-3.288529154392304
aF-3.267329439600551
aF-3.2429432377705547
aF-3.23874635933819
aF-3.2119737540069213
aF-3.187631986115933
aF-3.1680182420637455
aF-3.151082304007617
aF-3.1290905178535864
aF-3.1103505972405445
aF-3.086318035260955
aF-3.064964235306152
aF-3.0606740868956233
aF-3.0027953353779018
aF-2.987858220872118
aF-2.9702032223598707
aF-2.9452125687893504
aF-2.8994670973978214
aF-2.874911760706567
aF-2.8522045153897455
aF-2.800980095301574
aF-2.750728206583621
aF-2.685534723363541
aF-2.665372564296635
aF-2.6462847630076705
aF-2.6144155399786855
aF-2.5956099624465545
aF-2.5690400528033246
aF-2.548725363119104
aF-2.5272476525031915
aF-2.4999366233856977
aF-2.4808002621419543
aF-2.4578206262840863
aF-2.432533100643348
aF-2.417101083936049
aF-2.394839993328655
aF-2.377707287735212
aF-2.361693778136123
aF-2.350709781595155
aF-2.334323008925951
aF-2.319764141035966
aF-2.300699776534448
aF-2.265523350351176
aF-2.240812404757226
aF-2.219989329646962
aF-2.2156272480542616
aF-2.202109713110699
aF-2.186999879972256
aF-2.1812368539984637
aF-2.1766360766635473
aF-2.1724933095910752
aF-2.1668261742086345
aF-2.1539873022388387
aF-2.1431162739582783
aF-2.133967473162264
aF-2.123223544493006
aF-2.1107173324771566
aF-2.100768196400364
aF-2.1049150523557962
aF-2.1156343990503546
aF-2.1308615157216586
aF-2.1418108370455573
aF-2.1578386400962364
aF-2.1672026600915184
aF-2.17987358834544
aF-2.18890491606655
aF-2.1928961838488217
aF-2.1991169733825116
aF-2.2096108762232234
aF-2.216921298250325
aF-2.222878617557094
aF-2.218536304569608
aF-2.2192917329249493
aF-2.2222422054580164
aF-2.22730414019794
aF-2.2303133529236723
aF-2.2340669158555375
aF-2.2411131446005617
aF-2.2564483826706923
aF-2.260216206761065
aF-2.2686273240766988
aF-2.2865532296440962
aF-2.302049672284976
aF-2.310109341571907
aF-2.3154400615908908
aF-2.321640176297885
aF-2.3313513162561406
aF-2.3389649711466562
aF-2.345403671317971
aF-2.3548620566895213
aF-2.3668799789306454
aF-2.371665954040702
aF-2.377174231099171
aF-2.3832021084955106
aF-2.3904220811126704
aF-2.396828663619403
aF-2.402079030539358
aF-2.408043811731465
aF-2.421624516503273
aF-2.4319987388924598
aF-2.4435700236579954
aF-2.452333048835908
aF-2.4591755852720865
aF-2.466014798371155
aF-2.4781311261798784
aF-2.4824970250966802
aF-2.4916475295089278
aF-2.500843135601567
aF-2.5100651972308334
aF-2.5254859715310753
aF-2.5335929801802695
aF-2.541846665635501
aF-2.5422383329446165
aF-2.568590864420115
aF-2.5694237076905724
aF-2.578741623310214
aF-2.5895588292514677
aF-2.6060420755287543
aF-2.608592279860627
aF-2.6226282406678623
aF-2.6285544598428356
aF-2.646878453003998
aF-2.6539187370719537
aF-2.657078311531683
aF-2.658947213928872
aF-2.661692657628391
aF-2.662122433578581
aF-2.6664774117879024
aF-2.6674185028401967
aF-2.671470623253972
aF-2.6621968053224676
aF-2.6542266150960447
aF-2.645166477612482
aF-2.6370000592125082
aF-2.6064709746920047
aF-2.5985072570722787
aF-2.5951477851727134
aF-2.588427780017758
aF-2.5732003500043272
aF-2.5244979452735206
aF-2.4720236798000106
aF-2.44673412563449
aF-2.426034666670102
aF-2.410321075901299
aF-2.3717887136814895
aF-2.351782134484976
aF-2.3270939170159872
aF-2.3049312683501837
aF-2.2861070631488025
aF-2.265443008271412
aF-2.241712612461033
aF-2.195674038244645
aF-2.195497509086249
aF-2.155923381127142
aF-2.086451435235958
aF-2.04000053813836
aF-1.9603005629743424
aF-1.964077474751787
aF-1.902017612136904
aF-1.8855111994211777
aF-1.8822317159173187
aF-1.85465470023232
aF-1.7956731636266732
aF-1.7793043766029972
aF-1.7604886576120085
aF-1.7413272554075336
aF-1.72146972519344
aF-1.6990314841588183
aF-1.6599695262719645
aF-1.617529629634745
aF-1.6017570807426436
aF-1.580918914071214
aF-1.5664595540998054
aF-1.5358722105318527
aF-1.5103829617770967
aF-1.4884324830305735
aF-1.4735096318801593
aF-1.4605872108278206
aF-1.4405357287595706
aF-1.4261764855675745
aF-1.3906965748291045
aF-1.370347657303142
aF-1.329856116250328
aF-1.3176193369396687
aF-1.3019785312028087
aF-1.2791723716042196
aF-1.2541568970874089
aF-1.253831761760119
aF-1.2426357473072283
aF-1.2331589420694122
aF-1.2243812044279396
aF-1.213789970127081
aF-1.203788106525232
aF-1.1933260640464463
aF-1.1841187017220975
aF-1.1625185012418484
aF-1.1613669072140134
aF-1.1507842049928974
aF-1.141742035082074
aF-1.1345784265242704
aF-1.1256312547701737
aF-1.1255994102751812
aF-1.1198372083409893
aF-1.122056388146102
aF-1.1130082720485084
aF-1.1021510862398964
aF-1.0943361654108619
aF-1.088618953457398
aF-1.0858604427336322
aF-1.0780703820105877
aF-1.0774274965185728
aF-1.0740664114678828
aF-1.0709388811129268
aF-1.0633238407294145
aF-1.0553705404531804
aF-1.0515277134436083
aF-1.0482799004513734
aF-1.0485515599371418
aF-1.0538269476149633
aF-1.0667408068103008
aF-1.0818773691496375
aF-1.0897254032091515
aF-1.0861809984476256
aF-1.0895186083194655
aF-1.0869792199383221
aF-1.0877504806091876
aF-1.0890823315670901
aF-1.0904757804848302
aF-1.0932154151993383
aF-1.0954848454348174
aF-1.1013044828358651
aF-1.1044042638192628
aF-1.1069909576492416
aF-1.121897092745877
aF-1.1369316298673942
aF-1.1446915653905558
aF-1.1506179234101563
aF-1.1658044042015403
aF-1.1687324824704939
aF-1.1758772914306863
aF-1.175996736298547
aF-1.1830780908841425
aF-1.192485192856549
aF-1.201264583785252
aF-1.2250667685001635
aF-1.2623393312979214
aF-1.2759029574455478
aF-1.30134377982994
aF-1.3131142348467475
aF-1.3237581920051262
aF-1.3424800279444205
aF-1.3486063106283255
aF-1.349394310186884
aF-1.3480129186184042
aF-1.3479988949801036
aF-1.344074839433587
aF-1.341840376976019
aF-1.3446193105443496
aF-1.3517898916007132
aF-1.350473889574301
aF-1.3306782281123593
aF-1.32381814180172
aF-1.2750287709638075
aF-1.269135811114952
aF-1.2717000789353243
aF-1.259235343608884
aF-1.2611657176844449
aF-1.260357162748718
aF-1.2572965677080692
aF-1.2471607155977582
aF-1.2299664381703215
aF-1.2260644982646718
aF-1.2189602630687881
aF-1.203839359072103
aF-1.2004231149222
aF-1.1953827752481638
aF-1.182158004764749
aF-1.172001603937061
aF-1.1566625343055374
aF-1.1564018799888383
aF-1.155344627587991
aF-1.15155841501034
aF-1.148105326962514
aF-1.145591923489035
aF-1.1371484889835644
aF-1.127669319362486
aF-1.1247183369079174
aF-1.121363889010404
aF-1.1169068041100434
aF-1.1035781155613922
aF-1.101871871327361
aF-1.0978026035720876
aF-1.0858353477677058
aF-1.087088244408986
aF-1.078245742670034
aF-1.0736203596772085
aF-1.066051231272111
aF-1.0615559437078324
aF-1.047024887356049
aF-1.0469567925670593
aF-1.0376930354864546
aF-1.0269039136552258
aF-1.017190652938061
aF-1.0018736193088302
aF-0.9869028710745598
aF-0.9731905230149586
aF-0.9582794543437636
aF-0.9203425532779557
aF-0.8925284760131836
aF-0.8274073146512627
aF-0.7503649104346088
aF-0.6853126668080323
aF-0.6598590879267975
aF-0.6515951936563819
aF-0.6291050811176682
aF-0.6264290240636214
aF-0.6094473799447352
aF-0.5672333252039043
aF-0.5255532371794929
aF-0.5011617860703675
aF-0.502192016343805
aF-0.4822505089386437
aF-0.43966814091842366
aF-0.420954492507435
aF-0.4014459583747486
aF-0.3720109637396302
aF-0.3417685752045634
aF-0.3009959447461422
aF-0.25121947995812915
aF-0.1274057814195596
asS'yaw'
p5
(lp6
F-0.19033072958009906
aF-0.14230736326601195
aF-0.1240948524800855
aF-0.1317282660847745
aF-0.17344089679396155
aF-0.24947397765621943
aF-0.3233551367304911
aF-0.3779046169472824
aF-0.4119493059081259
aF-0.42702347434087784
aF-0.4868051767292799
aF-0.5636020761867454
aF-0.6404331471056979
aF-0.6872090763333454
aF-0.7343361881745615
aF-0.7256709884899503
aF-0.7082754912874735
aF-0.6603012676221292
aF-0.6200737769962679
aF-0.5822016085021292
aF-0.5975063794906716
aF-0.6160060612649333
aF-0.679030804750445
aF-0.7656937570592459
aF-0.9972891822923813
aF-1.1246826600471804
aF-1.2400590974775958
aF-1.3534925162834772
aF-1.3624541208905259
aF-1.3079198832741021
aF-1.2828865739627322
aF-1.2844993371978632
aF-1.320856311278957
aF-1.428303050707106
aF-1.5294042704850332
aF-1.5159768567878797
aF-1.5382293487979755
aF-1.5019562688992878
aF-1.4494621005709385
aF-1.408395862768446
aF-1.4366871210594727
aF-1.4343690352540066
aF-1.4854157480371812
aF-1.5288183985963482
aF-1.550029885510386
aF-1.5634644787455005
aF-1.5564956723861172
aF-1.5569833815453114
aF-1.4741197949896745
aF-1.4676205026016291
aF-1.4771379491130423
aF-1.4790875859656476
aF-1.5537009678703393
aF-1.5388520466833657
aF-1.531844364801463
aF-1.5270354820433123
aF-1.5319544333854003
aF-1.5482141284123392
aF-1.580213002289875
aF-1.5699628820243718
aF-1.569315790325017
aF-1.6122048376141518
aF-1.6239348064432113
aF-1.6360567513750501
aF-1.6267464137285743
aF-1.6275493768025693
aF-1.6258786703364552
aF-1.7167378877229844
aF-1.6729335595087726
aF-1.7155563096721789
aF-1.7181056366064322
aF-1.7227557273533902
aF-1.7423955339570076
aF-1.8716083088223163
aF-1.9882148614194852
aF-2.036426744673163
aF-2.10338445092215
aF-2.213897932371132
aF-2.183463331010185
aF-2.182536552535987
aF-2.1307113425182043
aF-2.1366294541490487
aF-2.141497161103152
aF-2.1417414737133207
aF-2.161184300171929
aF-2.161740162468519
aF-2.170373162260069
aF-2.16562902567312
aF-2.160853116938395
aF-2.1623395497815125
aF-2.20362872238708
aF-2.251124080650676
aF-2.3345409826149317
aF-2.426511657502973
aF-2.405019626886482
aF-2.3984338683502204
aF-2.3849274957370055
aF-2.3844610122920895
aF-2.3438707941425037
aF-2.3565876407946273
aF-2.4216465594850716
aF-2.522600465267527
aF-2.6549517877944675
aF-2.8002844294814366
aF-2.8701869074075432
aF-2.8280246971562657
aF-2.7949373972913842
aF-2.7905218106533667
aF-2.794502135983562
aF-2.8114920959579615
aF-2.9123406690797897
aF-2.9866066902755004
aF-3.054577733171566
aF-3.090826080088008
aF-3.0724346991458065
aF-3.0862908223121726
aF-3.065544321138859
aF-3.0677992799729212
aF-3.0692095938073702
aF-3.0694545947330756
aF-3.0957440284218913
aF3.10917467402077
aF3.0467403221007485
aF2.9345773186468427
aF2.858509687030576
aF2.690873223497287
aF2.7223918433390963
aF2.5911459848233678
aF2.491432190878426
aF2.481596367857486
aF2.5263722720062516
aF2.5812525505760826
aF2.6054163221716014
aF2.619810403045071
aF2.646975377784726
aF2.6267402988554687
aF2.6195893977144222
aF2.477216202667264
aF2.5258072524603277
aF2.5306411442149552
aF2.54791076740671
aF2.5822819644173385
aF2.747338575755478
aF3.0080521966647744
aF3.115311809518485
aF3.0642497996890836
aF3.0808936436583467
aF3.0619880313601042
aF3.0131693649714575
aF3.023721768331204
aF3.029954608037884
aF3.026384749469753
aF3.012740689588074
aF3.0143570467275898
aF3.015780710150557
aF3.016161489797437
aF3.0143066938044853
aF3.0133947495697155
aF2.9975049495445103
aF2.9936113951441112
aF2.9973749122383713
aF2.998311590360097
aF2.9997459822492267
aF3.000370454457872
aF3.017765193339175
aF3.016327212518464
aF3.0247311935831465
aF2.859742122054618
aF3.0261661646109523
aF3.062356962262707
aF3.0657093306428878
aF3.0986371120490244
aF3.12723033067036
aF-3.1018989369365597
aF-3.0436472492476283
aF-3.077018255091182
aF-3.0917442120097864
aF-3.093646409378878
aF-3.0943431005368454
aF-3.0954979173406447
aF-3.094957600202555
aF-3.094283731441874
aF-3.0939288822872966
aF-3.0947731167944643
aF-3.092977753952016
aF-3.0600611845091796
aF-3.057175550368286
aF-3.0623604897692105
aF-3.0509560335825965
aF-3.059144207712703
aF-3.0581679938444455
aF-3.0589336482311
aF-3.0308732591296157
aF-3.036122922811843
aF-2.976711668104316
aF-2.9966526575886188
aF-3.0025636697092275
aF-2.9759363001733123
aF-2.941307070674143
aF-2.8953058709978268
aF-2.890852797585817
aF-2.8844607671618676
aF-2.8034671899606605
aF-2.8044370175442044
aF-2.815083029432011
aF-2.7974316714424723
aF-2.7921114163484955
aF-2.791679084846794
aF-2.790251400601999
aF-2.7562539127972348
aF-2.7137243761548997
aF-2.71876780699166
aF-2.697687484737438
aF-2.6921265291677545
aF-2.6561289868929796
aF-2.62165235024558
aF-2.594738797915485
aF-2.6218335692208043
aF-2.618382997669117
aF-2.651595110751721
aF-2.6486997126306093
aF-2.645040756943335
aF-2.6467795631767914
aF-2.646011151802326
aF-2.668999374846754
aF-2.72454725486031
aF-2.763715522215057
aF-2.748288967509351
aF-2.761848806916837
aF-2.7817545396631065
aF-2.7786541016513095
aF-2.7740291819799636
aF-2.7445150352722414
aF-2.743019467540438
aF-2.7480623382262532
aF-2.7721356611909655
aF-2.8244939022864504
aF-2.874236653099245
aF-2.968469405867157
aF-2.998784984529151
aF-3.0413144934150234
aF-3.0433834874989456
aF-3.023658650607125
aF-3.0205457766198265
aF-3.0211503857316426
aF-3.0210852484942365
aF-3.020487422418887
aF-3.047416383360623
aF-3.0786410891216742
aF-3.084163115577931
aF-3.1009348614222314
aF-3.1183648185587876
aF-3.092937828160613
aF-3.0841764551020963
aF-3.090554109895203
aF-3.0883877032403912
aF-3.0884400358187873
aF-3.0879878721643172
aF-3.1145023538752685
aF3.107978638464745
aF3.095560845713854
aF3.105639079760818
aF3.1063372153453286
aF3.1014331065313603
aF3.0987379320175257
aF3.104409785010119
aF3.0538809907622606
aF3.0365864928132265
aF2.8989160281986415
aF2.7915419328066946
aF2.681170659868562
aF2.677295662996869
aF2.6292711945122016
aF2.623813226084153
aF2.636738493296534
aF2.659707529474569
aF2.662329074096633
aF2.653960019871431
aF2.609703484217142
aF2.569452414902253
aF2.4458788048659343
aF2.436683068911193
aF2.3052097248823786
aF2.2106478426952196
aF2.190095702453929
aF2.1365999013803867
aF2.1596885675912945
aF2.1794437692774857
aF2.1763149623820577
aF2.178328674417973
aF2.1761831250150236
aF2.157293675005171
aF2.0867761021726494
aF2.0386041662692387
aF1.984524998422787
aF1.9580623375524355
aF1.9653797104090815
aF1.9608894408647632
aF1.9506290811241607
aF1.9383563569523015
aF1.9061046644760407
aF1.8413409849792435
aF1.8071838239650286
aF1.7793126127391397
aF1.7511889300952055
aF1.7195129899506194
aF1.6188589543945155
aF1.6310419936059741
aF1.6022519781188784
aF1.5932766309321438
aF1.5310746481951278
aF1.5365254784080487
aF1.551372255385527
aF1.5608453829749602
aF1.5209612622211575
aF1.3134460634998035
aF1.1742745491835327
aF1.2159777321347445
aF1.1133597388836654
aF1.1588068833744913
aF1.174219502443273
aF1.2065898020153372
aF1.238337390805531
aF1.244397412835901
aF1.2020298563362422
aF1.191841447163898
aF1.0912865008981463
aF1.0670190445824423
aF0.9329864202301325
aF0.8319144198213932
aF0.7934069575708373
aF0.6509178540357934
aF0.5855194834329689
aF0.6113301017299686
aF0.6150785715203999
aF0.6367224096457021
aF0.6464426364189482
aF0.6447311377579883
aF0.5855336365779603
aF0.5642268721595671
aF0.31954226438433714
aF0.23566152600914486
aF0.21650103996100145
aF0.22545189196089524
aF0.22205855548115055
aF0.29030103246299976
aF0.31784308752194024
aF0.3061366425097847
aF0.31983401747978785
aF0.28566036140520923
aF0.23699479802101248
aF0.11551091242385948
aF-0.10758581578091246
aF-0.08408892651273268
aF-0.2231695697061833
aF-0.2911515115039345
aF-0.34397222687294216
aF-0.33390256048516975
aF-0.35132615739768736
aF-0.3062151211985201
aF-0.2880752421685669
aF-0.2651139265380912
aF-0.18715223782742524
aF-0.12861716406396678
aF-0.16947012656959495
aF-0.1676909934511037
aF-0.16181205237969182
aF-0.16101342799050955
aF-0.16129266530841688
aF-0.16092067629220747
aF-0.1754271489157693
aF-0.1903175680399521
aF-0.19041448076147394
aF-0.1935565684001708
aF-0.1932211923179543
aF-0.1939368044450776
aF-0.1937277300892124
aF-0.19378699025130822
aF-0.1938176020581892
aF-0.19402244940652727
aF-0.19397827103234647
aF-0.1943991801852615
aF-0.1947180815950821
aF-0.19370783901674973
aF-0.19421063347590983
aF-0.19431107929335714
aF-0.1940377976417784
aF-0.19419872689819098
aF-0.19549473555753732
aF-0.1954849866535237
aF-0.19576963442215345
aF-0.1929911876005701
aF-0.19416006522624604
aF-0.19457848505180905
aF-0.19486755185183188
aF-0.19532878463121464
aF-0.19476199437394387
aF-0.19448738523685472
aF-0.19436447563799583
aF-0.19466816618533536
aF-0.1948672451092598
aF-0.1942707237254878
aF-0.19405092826375897
aF-0.19511814270738856
aF-0.19431358181917024
aF-0.19430694684476787
aF-0.19539845338381462
aF-0.19456987068854614
aF-0.19769422721194777
aF-0.20051716178829934
aF-0.1932852614444962
aF-0.19568269662784002
aF-0.19491004464912656
aF-0.19492319212449422
aF-0.17608977912985646
aF-0.16974801751176807
aF-0.11583932917997904
aF-0.07917405256231592
aF-0.05386209931396593
aF-0.016692262564498704
aF-0.042357974068886084
aF-0.03433719634168267
aF-0.0003182546664705128
aF0.10435389380588164
aF0.13146629661378584
aF0.13338749211878956
aF0.14121533705769046
aF0.2166084253084671
aF0.27054399936348067
aF0.3166922403407939
aF0.36337389317629737
aF0.408148242040471
aF0.6287310395623867
aF0.7433227329800438
aF0.7273692048203961
aF0.727308994880754
aF0.7220830591513322
aF0.7789198490147329
aF0.8137674927630811
aF0.8089931331366697
aF0.8177378185280312
aF0.8267474143590957
aF0.8699493653744608
aF0.8915623992898489
aF0.9180643999055312
aF0.934738795743216
aF1.0354429274800947
aF1.2375954942860308
aF1.3796546098603941
aF1.4690004117613156
aF1.4377638316181232
aF1.447665013599337
aF1.4582616704755778
aF1.482942356233444
aF1.5281849812494153
aF1.701043153383894
aF1.733679712923675
aF1.8317363440061725
aF1.9049569382429157
aF1.9256196332928317
aF1.9394337353596536
aF1.9346928107156203
aF1.9380475782503401
aF1.8639468483690271
aF1.8657712692460158
aF1.8578159498555995
aF1.9042740977807322
aF2.0267629735200376
aF2.06755166048952
aF2.1486339369968976
aF2.1792883650353168
aF2.2304767800978547
aF2.2675429978045765
aF2.2586941407759844
aF2.2665802858401345
aF2.275958883528592
aF2.2791860559019494
aF2.3434386870707757
aF2.3629669149647627
aF2.4148656760813623
aF2.4386302388549295
aF2.478823728524334
aF2.522574603603328
aF2.540182020633319
aF2.5847921536752696
aF2.5946700639997813
aF2.610288653596077
aF2.6100842727079976
aF2.6205975553334735
aF2.620117573039878
aF2.626978738811613
aF2.663331781331443
aF2.684512244937716
aF2.8317509941372414
aF2.8320350590512344
aF2.8834360750581496
aF2.912731309825261
aF2.939895255362078
aF2.937797765761584
aF2.934949831235171
aF2.958035110364941
aF2.963145266947289
aF2.980736684650206
aF2.9849826831561908
aF2.983126084933371
aF2.983773418655935
aF2.99606352918053
aF3.0022473899871467
aF3.0076490232332387
aF3.0605489189590225
aF3.1160893424346443
aF-3.096757712554601
aF-3.0139483266285505
aF-2.967758110424719
aF-2.9852915176744146
aF-3.020147477345839
aF-3.0330671503536846
aF-3.097530269643308
aF-3.0773350387927274
aF-3.0767861538209926
aF-3.077802441008369
aF-3.079083865788011
aF-3.0787556463488888
aF-3.0785763383466827
aF-3.078508318669426
aF-3.078925486092097
aF-2.94532820066147
aF-2.9450609562120005
aF-2.929395401745011
aF-2.9324251518840305
aF-2.914933546934245
aF-2.9276428783933146
aF-2.9249439347340096
aF-2.926603943722525
aF-2.9158466243092747
aF-2.8644191378665926
aF-2.8237952968442372
aF-2.7953577653256945
aF-2.804651161127952
aF-2.8450677101917066
aF-2.850169975581188
aF-2.82050977834093
aF-2.8217846001541194
aF-2.8497824106082836
aF-2.918011378105053
aF-3.0565755960644387
aF-3.068051103698187
aF-3.091752284022517
aF-3.0833065763621694
aF-3.0881707373139604
aF-3.0887261357496714
aF-3.129541530499893
aF3.053819841509559
aF2.912722237436916
aF2.8429146061015964
aF2.7483904658672627
aF2.7925245408798034
aF2.8205507360452535
aF2.888340523037421
aF2.9220263320589983
aF2.9422135922275783
aF2.948453042886348
aF2.9557983179878082
aF2.922768189224603
aF2.9267515712385093
aF2.9198066728856285
aF2.9214819302253234
aF2.92931761219985
aF2.9363762619500253
aF2.9390016297165378
aF3.0019458449422314
aF3.0217926574724614
aF3.0161257701557678
aF3.0166170898753473
aF3.0167746303445275
aF3.0167835627746773
aF3.016463025388023
aF3.0167748913821795
aF3.0169058353522042
aF3.016806184381744
aF3.0168686264991056
aF3.016815887795743
aF3.017030841881535
aF3.0168303624500323
aF3.016709021491179
aF3.0163720296655643
aF3.017418946695531
aF3.018885483019836
aF3.016918362700429
aF2.98573868160542
aF2.9691061869441127
aF2.9145707296710843
aF2.923583020494712
aF2.9126319598589347
aF2.9083615939548415
aF2.9027976773041675
aF2.901499678321631
aF2.901691369305206
aF2.835448275916957
aF2.7685646687667185
aF2.5707908325341142
aF2.5057210631756144
aF2.342825517514697
aF2.3490327548061476
aF2.3354790848049585
aF2.332811931323142
aF2.295913391101556
aF2.2655052534149576
aF2.2606960573336368
aF2.250118163017446
aF2.226618501251387
aF2.1873438159290375
aF2.141143631532839
aF2.1623162729575847
aF2.148300014916581
aF2.138388378243356
aF2.0939990463486744
aF2.0675866031216286
aF2.059599462678473
aF2.0556822989092964
aF1.9776804536980859
aF1.849558026129877
aF1.4644696705744173
as.